; Function Attrs: nounwind uwtable
define ptr @l_System_Uri_pathToUri___lambda__2___boxed(ptr noundef %0, ptr noundef %1, ptr noundef %2) local_unnamed_addr #0 {
  br label %lean_string_utf8_at_end.exit.i.i

lean_string_utf8_at_end.exit.i.i:                 ; preds = %lean_dec.exit.i.i, %3
  %4 = phi i64 [ %11, %lean_dec.exit.i.i ], [ 1, %3 ]
  %.02754.i.i = phi ptr [ %10, %lean_dec.exit.i.i ], [ inttoptr (i64 1 to ptr), %3 ]
  %.02953.i.i = phi ptr [ %9, %lean_dec.exit.i.i ], [ %1, %3 ]
  %5 = lshr i64 %4, 1
  %6 = getelementptr i8, ptr %.02953.i.i, i64 8
  %.val.i.i.i = load i64, ptr %6, align 8, !tbaa !15
  %7 = add i64 %.val.i.i.i, -1
  %.not.i.i = icmp ult i64 %5, %7
  br i1 %.not.i.i, label %lean_dec.exit.i.i, label %l_System_Uri_pathToUri___lambda__2.exit

lean_dec.exit.i.i:                                ; preds = %lean_string_utf8_at_end.exit.i.i
  %8 = tail call i32 @lean_string_utf8_get(ptr noundef nonnull %.02953.i.i, ptr noundef %.02754.i.i) #3
  %.not48.i.i = icmp eq i32 %8, 92
  %..i.i = select i1 %.not48.i.i, i32 47, i32 %8
  %9 = tail call ptr @lean_string_utf8_set(ptr noundef nonnull %.02953.i.i, ptr noundef %.02754.i.i, i32 noundef %..i.i) #3
  %10 = tail call ptr @lean_string_utf8_next(ptr noundef %9, ptr noundef %.02754.i.i) #3
  %11 = ptrtoint ptr %10 to i64
  %12 = and i64 %11, 1
  %.not.i40.i.i = icmp eq i64 %12, 0
  br i1 %.not.i40.i.i, label %._crit_edge.i.i, label %lean_string_utf8_at_end.exit.i.i

._crit_edge.i.i:                                  ; preds = %lean_dec.exit.i.i
  %13 = load i32, ptr %10, align 4, !tbaa !4
  %14 = icmp sgt i32 %13, 1
  br i1 %14, label %15, label %17, !prof !11

15:                                               ; preds = %._crit_edge.i.i
  %16 = add nsw i32 %13, -1
  store i32 %16, ptr %10, align 4, !tbaa !4
  br label %l_System_Uri_pathToUri___lambda__2.exit

17:                                               ; preds = %._crit_edge.i.i
  %.not.i38.i.i = icmp eq i32 %13, 0
  br i1 %.not.i38.i.i, label %l_System_Uri_pathToUri___lambda__2.exit, label %18

18:                                               ; preds = %17
  tail call void @lean_dec_ref_cold(ptr noundef nonnull %10) #3
  br label %l_System_Uri_pathToUri___lambda__2.exit

l_System_Uri_pathToUri___lambda__2.exit:          ; preds = %lean_string_utf8_at_end.exit.i.i, %15, %17, %18
  %.02951.i.i = phi ptr [ %9, %18 ], [ %9, %17 ], [ %9, %15 ], [ %.02953.i.i, %lean_string_utf8_at_end.exit.i.i ]
  %19 = tail call ptr @lean_apply_2(ptr noundef %0, ptr noundef %.02951.i.i, ptr noundef nonnull inttoptr (i64 1 to ptr)) #3
  %20 = ptrtoint ptr %2 to i64
  %21 = and i64 %20, 1
  %.not = icmp eq i64 %21, 0
  br i1 %.not, label %22, label %lean_dec.exit

22:                                               ; preds = %l_System_Uri_pathToUri___lambda__2.exit
  %23 = load i32, ptr %2, align 4, !tbaa !4
  %24 = icmp sgt i32 %23, 1
  br i1 %24, label %25, label %27, !prof !11

25:                                               ; preds = %22
  %26 = add nsw i32 %23, -1
  store i32 %26, ptr %2, align 4, !tbaa !4
  br label %lean_dec.exit

27:                                               ; preds = %22
  %.not.i = icmp eq i32 %23, 0
  br i1 %.not.i, label %lean_dec.exit, label %28

28:                                               ; preds = %27
  tail call void @lean_dec_ref_cold(ptr noundef nonnull %2) #3
  br label %lean_dec.exit

lean_dec.exit:                                    ; preds = %28, %27, %25, %l_System_Uri_pathToUri___lambda__2.exit
  ret ptr %19
}